target datalayout = "e-m:e-p270:32:32-p271:32:32-p272:64:64-i64:64-i128:128-f80:128-n8:16:32:64-S128"
target triple = "x86_64-pc-linux-gnu"

%struct.slurmdb_tres_rec_t = type { i64, i32, i64, i32, ptr, ptr }

@plugin_type = dso_local constant [31 x i8] c"acct_gather_interconnect/sysfs\00", align 16
@.str = private unnamed_addr constant [15 x i8] c"%s: %s: loaded\00", align 1
@__func__.init = private unnamed_addr constant [5 x i8] c"init\00", align 1
@.str.1 = private unnamed_addr constant [3 x i8] c"ic\00", align 1
@.str.2 = private unnamed_addr constant [6 x i8] c"sysfs\00", align 1
@tres_pos = internal global i32 -1, align 4
@.str.3 = private unnamed_addr constant [29 x i8] c"TRES ic/sysfs not configured\00", align 1
@interfaces = internal global ptr null, align 8

; Function Attrs: nounwind uwtable
define dso_local i32 @init() #0 {
  %1 = alloca i32, align 4
  %2 = alloca %struct.slurmdb_tres_rec_t, align 8
  %3 = alloca i32, align 4
  call void @llvm.lifetime.start.p0(i64 48, ptr %2) #6
  br label %4

4:                                                ; preds = %0
  br label %5

5:                                                ; preds = %4
  %6 = call i32 @slurm_get_log_level()
  %7 = icmp sge i32 %6, 5
  br i1 %7, label %8, label %9

8:                                                ; preds = %5
  call void (i32, ptr, ...) @slurm_log_var(i32 noundef 5, ptr noundef @.str, ptr noundef @plugin_type, ptr noundef @__func__.init)
  br label %9

9:                                                ; preds = %8, %5
  br label %10

10:                                               ; preds = %9
  br label %11

11:                                               ; preds = %10
  br label %12

12:                                               ; preds = %11
  br label %13

13:                                               ; preds = %12
  %14 = call zeroext i1 @slurm_running_in_slurmstepd()
  br i1 %14, label %16, label %15

15:                                               ; preds = %13
  store i32 0, ptr %1, align 4
  store i32 1, ptr %3, align 4
  br label %26

16:                                               ; preds = %13
  call void @llvm.memset.p0.i64(ptr align 8 %2, i8 0, i64 48, i1 false)
  %17 = getelementptr inbounds nuw %struct.slurmdb_tres_rec_t, ptr %2, i32 0, i32 5
  store ptr @.str.1, ptr %17, align 8
  %18 = getelementptr inbounds nuw %struct.slurmdb_tres_rec_t, ptr %2, i32 0, i32 4
  store ptr @.str.2, ptr %18, align 8
  %19 = call i32 @assoc_mgr_find_tres_pos(ptr noundef %2, i1 noundef zeroext false)
  store i32 %19, ptr @tres_pos, align 4
  %20 = load i32, ptr @tres_pos, align 4
  %21 = icmp eq i32 %20, -1
  br i1 %21, label %22, label %24

22:                                               ; preds = %16
  %23 = call i32 (ptr, ...) @slurm_error(ptr noundef @.str.3)
  br label %24

24:                                               ; preds = %22, %16
  %25 = call ptr @slurm_list_create(ptr noundef @_destroy_interface_stats_t)
  store ptr %25, ptr @interfaces, align 8
  store i32 0, ptr %1, align 4
  store i32 1, ptr %3, align 4
  br label %26

26:                                               ; preds = %24, %15
  call void @llvm.lifetime.end.p0(i64 48, ptr %2) #6
  %27 = load i32, ptr %1, align 4
  ret i32 %27
}