; Function Attrs: nounwind uwtable
define dso_local noundef i32 @init() local_unnamed_addr #0 {
  %1 = alloca %struct.slurmdb_tres_rec_t, align 8
  call void @llvm.lifetime.start.p0(i64 48, ptr nonnull %1) #9
  %2 = tail call i32 @slurm_get_log_level() #9
  %3 = icmp sgt i32 %2, 4
  br i1 %3, label %4, label %5

4:                                                ; preds = %0
  tail call void (i32, ptr, ...) @slurm_log_var(i32 noundef 5, ptr noundef nonnull @.str, ptr noundef nonnull @plugin_type, ptr noundef nonnull @__func__.init) #9
  br label %5

5:                                                ; preds = %4, %0
  %6 = tail call zeroext i1 @slurm_running_in_slurmstepd() #9
  br i1 %6, label %7, label %16

7:                                                ; preds = %5
  call void @llvm.memset.p0.i64(ptr noundef nonnull align 8 dereferenceable(48) %1, i8 0, i64 32, i1 false)
  %8 = getelementptr inbounds nuw i8, ptr %1, i64 40
  store ptr @.str.1, ptr %8, align 8
  %9 = getelementptr inbounds nuw i8, ptr %1, i64 32
  store ptr @.str.2, ptr %9, align 8
  %10 = call i32 @assoc_mgr_find_tres_pos(ptr noundef nonnull %1, i1 noundef zeroext false) #9
  store i32 %10, ptr @tres_pos, align 4
  %11 = icmp eq i32 %10, -1
  br i1 %11, label %12, label %14

12:                                               ; preds = %7
  %13 = call i32 (ptr, ...) @slurm_error(ptr noundef nonnull @.str.3) #9
  br label %14

14:                                               ; preds = %12, %7
  %15 = call ptr @slurm_list_create(ptr noundef nonnull @_destroy_interface_stats_t) #9
  store ptr %15, ptr @interfaces, align 8
  br label %16

16:                                               ; preds = %5, %14
  call void @llvm.lifetime.end.p0(i64 48, ptr nonnull %1) #9
  ret i32 0
}